(dp1
S'failed'
p2
(lp3
sS'source_names'
p4
(lp5
S'.'
asS'ids'
p6
(dp7
I1
(S'/Users/david-personal/projects/PythonPolys/pypoly/tests/test_polyclasses.py'
S'pypoly.tests.test_polyclasses'
S'test'
tp8
sI2
(S'/Users/david-personal/projects/PythonPolys/pypoly/tests/test_pythonpolys.py'
S'pypoly.tests.test_pythonpolys'
Ntp9
sI3
(S'/Users/david-personal/projects/PythonPolys/pypoly/tests/test_pythonpolys.py'
S'pypoly.tests.test_pythonpolys'
p10
S'test_validpoly_1'
tp11
sI4
(S'/Users/david-personal/projects/PythonPolys/pypoly/tests/test_pythonpolys.py'
g10
S'test_validpoly_2'
tp12
sI5
(S'/Users/david-personal/projects/PythonPolys/pypoly/tests/test_pythonpolys.py'
g10
S'test_validpoly_3'
tp13
sI6
(S'/Users/david-personal/projects/PythonPolys/pypoly/tests/test_pythonpolys.py'
g10
S'test_validpoly_4'
tp14
sI7
(S'/Users/david-personal/projects/PythonPolys/pypoly/tests/test_pythonpolys.py'
g10
S'test_validpoly_5'
tp15
sI8
(S'/Users/david-personal/projects/PythonPolys/pypoly/tests/test_pythonpolys.py'
g10
S'test_validpoly_6'
tp16
sI9
(S'/Users/david-personal/projects/PythonPolys/pypoly/tests/test_pythonpolys.py'
g10
S'test_validpoly_7'
tp17
sI10
(S'/Users/david-personal/projects/PythonPolys/pypoly/tests/test_pythonpolys.py'
g10
S'test_evalpoly_basic_1'
tp18
sI11
(S'/Users/david-personal/projects/PythonPolys/pypoly/tests/test_pythonpolys.py'
g10
S'test_evalpoly_basic_2'
tp19
sI12
(S'/Users/david-personal/projects/PythonPolys/pypoly/tests/test_pythonpolys.py'
g10
S'test_evalpoly_basic_3'
tp20
sI13
(S'/Users/david-personal/projects/PythonPolys/pypoly/tests/test_pythonpolys.py'
g10
S'test_evalpoly_basic_4'
tp21
sI14
(S'/Users/david-personal/projects/PythonPolys/pypoly/tests/test_pythonpolys.py'
g10
S'test_evalpoly_basic_5'
tp22
sI15
(S'/Users/david-personal/projects/PythonPolys/pypoly/tests/test_pythonpolys.py'
S'pypoly.tests.test_pythonpolys'
p23
S'test_evalpoly_horner_1'
tp24
sI16
(S'/Users/david-personal/projects/PythonPolys/pypoly/tests/test_pythonpolys.py'
g23
S'test_evalpoly_horner_2'
tp25
sI17
(S'/Users/david-personal/projects/PythonPolys/pypoly/tests/test_pythonpolys.py'
g23
S'test_evalpoly_horner_3'
tp26
sI18
(S'/Users/david-personal/projects/PythonPolys/pypoly/tests/test_pythonpolys.py'
g23
S'test_evalpoly_horner_4'
tp27
sI19
(S'/Users/david-personal/projects/PythonPolys/pypoly/tests/test_pythonpolys.py'
g23
S'test_evalpoly_horner_5'
tp28
ss.